; Function Attrs: nounwind uwtable
define hidden noundef ptr @EC_POINT_dup(ptr noundef %0, ptr noundef readonly captures(address_is_null) %1) local_unnamed_addr #1 {
  %3 = icmp eq ptr %0, null
  br i1 %3, label %EC_POINT_copy.exit.thread16, label %4

4:                                                ; preds = %2
  %5 = icmp eq ptr %1, null
  br i1 %5, label %6, label %7

6:                                                ; preds = %4
  tail call void @ERR_put_error(i32 noundef 15, i32 noundef 0, i32 noundef 67, ptr noundef nonnull @.str, i32 noundef 680) #11
  br label %15

7:                                                ; preds = %4
  %8 = tail call noalias dereferenceable_or_null(80) ptr @malloc(i64 noundef 80) #12
  %9 = icmp eq ptr %8, null
  br i1 %9, label %10, label %11

10:                                               ; preds = %7
  tail call void @ERR_put_error(i32 noundef 15, i32 noundef 0, i32 noundef 65, ptr noundef nonnull @.str, i32 noundef 686) #11
  br label %15

11:                                               ; preds = %7
  %12 = load ptr, ptr %1, align 8, !tbaa !11
  store ptr %12, ptr %8, align 8, !tbaa !23
  %13 = tail call i32 @ec_GFp_simple_point_init(ptr noundef nonnull %8) #11
  %.not.i = icmp eq i32 %13, 0
  br i1 %.not.i, label %14, label %EC_POINT_new.exit

14:                                               ; preds = %11
  tail call void @free(ptr noundef nonnull %8) #11
  br label %15

15:                                               ; preds = %6, %10, %14
  tail call void @ERR_put_error(i32 noundef 15, i32 noundef 0, i32 noundef 65, ptr noundef nonnull @.str, i32 noundef 742) #11
  br label %EC_POINT_copy.exit.thread16

EC_POINT_new.exit:                                ; preds = %11
  %16 = load ptr, ptr %8, align 8, !tbaa !23
  %17 = load ptr, ptr %0, align 8, !tbaa !23
  %.not.i10 = icmp eq ptr %16, %17
  br i1 %.not.i10, label %18, label %EC_POINT_copy.exit.thread

EC_POINT_copy.exit.thread:                        ; preds = %EC_POINT_new.exit
  tail call void @ERR_put_error(i32 noundef 15, i32 noundef 0, i32 noundef 106, ptr noundef nonnull @.str, i32 noundef 723) #11
  br label %EC_POINT_free.exit

18:                                               ; preds = %EC_POINT_new.exit
  %19 = icmp eq ptr %8, %0
  br i1 %19, label %EC_POINT_copy.exit.thread16, label %EC_POINT_copy.exit

EC_POINT_copy.exit:                               ; preds = %18
  %20 = tail call i32 @ec_GFp_simple_point_copy(ptr noundef nonnull %8, ptr noundef nonnull %0) #11
  %.not = icmp eq i32 %20, 0
  br i1 %.not, label %EC_POINT_free.exit, label %EC_POINT_copy.exit.thread16

EC_POINT_free.exit:                               ; preds = %EC_POINT_copy.exit.thread, %EC_POINT_copy.exit
  tail call void @ec_GFp_simple_point_finish(ptr noundef nonnull %8) #11
  tail call void @free(ptr noundef nonnull %8) #11
  br label %EC_POINT_copy.exit.thread16

EC_POINT_copy.exit.thread16:                      ; preds = %18, %EC_POINT_copy.exit, %2, %EC_POINT_free.exit, %15
  %.0 = phi ptr [ null, %15 ], [ null, %EC_POINT_free.exit ], [ null, %2 ], [ %8, %EC_POINT_copy.exit ], [ %8, %18 ]
  ret ptr %.0
}